opt subtitle "HI-TECH Software Omniscient Code Generator (Lite mode) build 6738"

opt pagewidth 120

	opt lm

	processor	16F690
clrc	macro
	bcf	3,0
	endm
clrz	macro
	bcf	3,2
	endm
setc	macro
	bsf	3,0
	endm
setz	macro
	bsf	3,2
	endm
skipc	macro
	btfss	3,0
	endm
skipz	macro
	btfss	3,2
	endm
skipnc	macro
	btfsc	3,0
	endm
skipnz	macro
	btfsc	3,2
	endm
indf	equ	0
indf0	equ	0
pc	equ	2
pcl	equ	2
status	equ	3
fsr	equ	4
fsr0	equ	4
c	equ	1
z	equ	0
pclath	equ	10
# 4 "C:\projects\PIC\dtmftest\dtmftest.c"
	psect config,class=CONFIG,delta=2 ;#
# 4 "C:\projects\PIC\dtmftest\dtmftest.c"
	dw 0x3FFF & 0x3CFF & 0x3FDF & 0x3FEF & 0x3FFC & 0x3FF7 ;#
	FNCALL	_main,_pulse
	FNROOT	_main
	global	_PORTC
psect	maintext,global,class=CODE,delta=2
global __pmaintext
__pmaintext:
_PORTC	set	7
	global	_RC2
_RC2	set	58
	global	_RC4
_RC4	set	60
	global	_RC7
_RC7	set	63
	global	_TRISC
_TRISC	set	135
	global	_ANSEL
_ANSEL	set	286
	global	_ANSELH
_ANSELH	set	287
	file	"dtmftest.as"
	line	#
psect cinit,class=CODE,delta=2
global start_initialization
start_initialization:

psect cinit,class=CODE,delta=2
global end_of_initialization

;End of C runtime variable initialization code

end_of_initialization:
clrf status
ljmp _main	;jump to C main() function
psect	cstackCOMMON,class=COMMON,space=1
global __pcstackCOMMON
__pcstackCOMMON:
	global	?_pulse
?_pulse:	; 0 bytes @ 0x0
	global	??_pulse
??_pulse:	; 0 bytes @ 0x0
	global	?_main
?_main:	; 0 bytes @ 0x0
	global	??_main
??_main:	; 0 bytes @ 0x0
	ds	2
	global	main@i
main@i:	; 1 bytes @ 0x2
	ds	1
;;Data sizes: Strings 0, constant 0, data 0, bss 0, persistent 0 stack 0
;;Auto spaces:   Size  Autos    Used
;; COMMON          14      3       3
;; BANK0           80      0       0
;; BANK1           80      0       0
;; BANK2           80      0       0

;;
;; Pointer list with targets:



;;
;; Critical Paths under _main in COMMON
;;
;;   None.
;;
;; Critical Paths under _main in BANK0
;;
;;   None.
;;
;; Critical Paths under _main in BANK1
;;
;;   None.
;;
;; Critical Paths under _main in BANK2
;;
;;   None.

;;
;;Main: autosize = 0, tempsize = 2, incstack = 0, save=0
;;

;;
;;Call Graph Tables:
;;
;; ---------------------------------------------------------------------------------
;; (Depth) Function   	        Calls       Base Space   Used Autos Params    Refs
;; ---------------------------------------------------------------------------------
;; (0) _main                                                 3     3      0      30
;;                                              0 COMMON     3     3      0
;;                              _pulse
;; ---------------------------------------------------------------------------------
;; (1) _pulse                                                0     0      0       0
;; ---------------------------------------------------------------------------------
;; Estimated maximum stack depth 1
;; ---------------------------------------------------------------------------------

;; Call Graph Graphs:

;; _main (ROOT)
;;   _pulse
;;

;; Address spaces:

;;Name               Size   Autos  Total    Cost      Usage
;;BITCOMMON            E      0       0       0        0.0%
;;EEDATA             100      0       0       0        0.0%
;;NULL                 0      0       0       0        0.0%
;;CODE                 0      0       0       0        0.0%
;;COMMON               E      3       3       1       21.4%
;;BITSFR0              0      0       0       1        0.0%
;;SFR0                 0      0       0       1        0.0%
;;BITSFR1              0      0       0       2        0.0%
;;SFR1                 0      0       0       2        0.0%
;;STACK                0      0       1       2        0.0%
;;BANK0               50      0       0       3        0.0%
;;BITBANK1            50      0       0       4        0.0%
;;BITSFR3              0      0       0       4        0.0%
;;SFR3                 0      0       0       4        0.0%
;;BANK1               50      0       0       5        0.0%
;;BITSFR2              0      0       0       5        0.0%
;;SFR2                 0      0       0       5        0.0%
;;BITBANK2            50      0       0       6        0.0%
;;BANK2               50      0       0       7        0.0%
;;ABS                  0      0       0       8        0.0%
;;BITBANK0            50      0       0       9        0.0%
;;DATA                 0      0       0      10        0.0%

	global	_main
psect	maintext

;; *************** function _main *****************
;; Defined at:
;;		line 17 in file "C:\projects\PIC\dtmftest\dtmftest.c"
;; Parameters:    Size  Location     Type
;;		None
;; Auto vars:     Size  Location     Type
;;  i               1    2[COMMON] unsigned char 
;; Return value:  Size  Location     Type
;;		None               void
;; Registers used:
;;		wreg, status,2, status,0, pclath, cstack
;; Tracked objects:
;;		On entry : 17F/0
;;		On exit  : 0/0
;;		Unchanged: 0/0
;; Data sizes:     COMMON   BANK0   BANK1   BANK2
;;      Params:         0       0       0       0
;;      Locals:         1       0       0       0
;;      Temps:          2       0       0       0
;;      Totals:         3       0       0       0
;;Total ram usage:        3 bytes
;; Hardware stack levels required when called:    1
;; This function calls:
;;		_pulse
;; This function is called by:
;;		Startup code after reset
;; This function uses a non-reentrant model
;;
psect	maintext
	file	"C:\projects\PIC\dtmftest\dtmftest.c"
	line	17
	global	__size_of_main
	__size_of_main	equ	__end_of_main-_main
	
_main:	
	opt	stack 7
; Regs used in _main: [wreg+status,2+status,0+pclath+cstack]
	line	19
	
l1876:	
;dtmftest.c: 18: char i;
;dtmftest.c: 19: TRISC = 0;
	bsf	status, 5	;RP0=1, select bank1
	bcf	status, 6	;RP1=0, select bank1
	clrf	(135)^080h	;volatile
	line	20
;dtmftest.c: 20: ANSEL = ANSELH = 0;
	bcf	status, 5	;RP0=0, select bank2
	bsf	status, 6	;RP1=1, select bank2
	clrf	(287)^0100h	;volatile
	clrf	(286)^0100h	;volatile
	line	21
	
l1878:	
;dtmftest.c: 21: PORTC = 0b10000100;
	movlw	(084h)
	bcf	status, 5	;RP0=0, select bank0
	bcf	status, 6	;RP1=0, select bank0
	movwf	(7)	;volatile
	line	22
	
l1880:	
;dtmftest.c: 22: _delay((unsigned long)((10)*(4000000/4000.0)));
	opt asmopt_off
movlw	13
movwf	((??_main+0)+0+1),f
	movlw	251
movwf	((??_main+0)+0),f
u2167:
	decfsz	((??_main+0)+0),f
	goto	u2167
	decfsz	((??_main+0)+0+1),f
	goto	u2167
	nop2
opt asmopt_on

	line	23
	
l1882:	
;dtmftest.c: 23: RC2 = 0;
	bcf	status, 5	;RP0=0, select bank0
	bcf	status, 6	;RP1=0, select bank0
	bcf	(58/8),(58)&7
	line	24
	
l1884:	
;dtmftest.c: 24: _delay((unsigned long)((10)*(4000000/4000.0)));
	opt asmopt_off
movlw	13
movwf	((??_main+0)+0+1),f
	movlw	251
movwf	((??_main+0)+0),f
u2177:
	decfsz	((??_main+0)+0),f
	goto	u2177
	decfsz	((??_main+0)+0+1),f
	goto	u2177
	nop2
opt asmopt_on

	line	26
	
l1886:	
;dtmftest.c: 26: RC4 = 1;
	bcf	status, 5	;RP0=0, select bank0
	bcf	status, 6	;RP1=0, select bank0
	bsf	(60/8),(60)&7
	line	27
	
l1888:	
;dtmftest.c: 27: pulse();
	fcall	_pulse
	line	28
	
l1890:	
;dtmftest.c: 28: RC4 = 0;
	bcf	status, 5	;RP0=0, select bank0
	bcf	status, 6	;RP1=0, select bank0
	bcf	(60/8),(60)&7
	line	29
	
l1892:	
;dtmftest.c: 29: pulse();
	fcall	_pulse
	line	30
	
l1894:	
;dtmftest.c: 30: RC4 = 0;
	bcf	status, 5	;RP0=0, select bank0
	bcf	status, 6	;RP1=0, select bank0
	bcf	(60/8),(60)&7
	line	31
	
l1896:	
;dtmftest.c: 31: pulse();
	fcall	_pulse
	line	32
	
l1898:	
;dtmftest.c: 32: RC4 = 0;
	bcf	status, 5	;RP0=0, select bank0
	bcf	status, 6	;RP1=0, select bank0
	bcf	(60/8),(60)&7
	line	33
	
l1900:	
;dtmftest.c: 33: pulse();
	fcall	_pulse
	line	34
	
l1902:	
;dtmftest.c: 34: RC4 = 0;
	bcf	status, 5	;RP0=0, select bank0
	bcf	status, 6	;RP1=0, select bank0
	bcf	(60/8),(60)&7
	line	35
	
l1904:	
;dtmftest.c: 35: pulse();
	fcall	_pulse
	line	36
	
l1906:	
;dtmftest.c: 36: _delay((unsigned long)((195)*(4000000/4000.0)));
	opt asmopt_off
movlw	254
movwf	((??_main+0)+0+1),f
	movlw	61
movwf	((??_main+0)+0),f
u2187:
	decfsz	((??_main+0)+0),f
	goto	u2187
	decfsz	((??_main+0)+0+1),f
	goto	u2187
	nop2
opt asmopt_on

	line	38
	
l1908:	
;dtmftest.c: 38: RC4 = 1;
	bcf	status, 5	;RP0=0, select bank0
	bcf	status, 6	;RP1=0, select bank0
	bsf	(60/8),(60)&7
	line	39
	
l1910:	
;dtmftest.c: 39: for (i = 0; i < 5; i++)
	clrc
	movlw	0
	btfsc	status,0
	movlw	1
	movwf	(main@i)
	
l1912:	
	movlw	(05h)
	subwf	(main@i),w
	skipc
	goto	u2141
	goto	u2140
u2141:
	goto	l1916
u2140:
	goto	l715
	
l1914:	
	goto	l715
	line	40
	
l714:	
	
l1916:	
;dtmftest.c: 40: pulse();
	fcall	_pulse
	line	39
	
l1918:	
	movlw	(01h)
	movwf	(??_main+0)+0
	movf	(??_main+0)+0,w
	addwf	(main@i),f
	
l1920:	
	movlw	(05h)
	subwf	(main@i),w
	skipc
	goto	u2151
	goto	u2150
u2151:
	goto	l1916
u2150:
	
l715:	
	line	41
;dtmftest.c: 41: RC2 = 1;
	bcf	status, 5	;RP0=0, select bank0
	bcf	status, 6	;RP1=0, select bank0
	bsf	(58/8),(58)&7
	goto	l717
	line	42
;dtmftest.c: 42: while(1);
	
l716:	
	
l717:	
	goto	l717
	
l718:	
	line	43
	
l719:	
	global	start
	ljmp	start
	opt stack 0
GLOBAL	__end_of_main
	__end_of_main:
;; =============== function _main ends ============

	signat	_main,88
	global	_pulse
psect	text55,local,class=CODE,delta=2
global __ptext55
__ptext55:

;; *************** function _pulse *****************
;; Defined at:
;;		line 10 in file "C:\projects\PIC\dtmftest\dtmftest.c"
;; Parameters:    Size  Location     Type
;;		None
;; Auto vars:     Size  Location     Type
;;		None
;; Return value:  Size  Location     Type
;;		None               void
;; Registers used:
;;		None
;; Tracked objects:
;;		On entry : 0/0
;;		On exit  : 0/0
;;		Unchanged: 0/0
;; Data sizes:     COMMON   BANK0   BANK1   BANK2
;;      Params:         0       0       0       0
;;      Locals:         0       0       0       0
;;      Temps:          0       0       0       0
;;      Totals:         0       0       0       0
;;Total ram usage:        0 bytes
;; Hardware stack levels used:    1
;; This function calls:
;;		Nothing
;; This function is called by:
;;		_main
;; This function uses a non-reentrant model
;;
psect	text55
	file	"C:\projects\PIC\dtmftest\dtmftest.c"
	line	10
	global	__size_of_pulse
	__size_of_pulse	equ	__end_of_pulse-_pulse
	
_pulse:	
	opt	stack 7
; Regs used in _pulse: []
	line	11
	
l1874:	
;dtmftest.c: 11: RC7 = 0;
	bcf	status, 5	;RP0=0, select bank0
	bcf	status, 6	;RP1=0, select bank0
	bcf	(63/8),(63)&7
	line	12
;dtmftest.c: 12: _delay((unsigned long)((5)*(4000000/4000000.0)));
		opt asmopt_off
	nop2	;2 cycle nop
	opt asmopt_on
	opt asmopt_off
	nop2	;2 cycle nop
	opt asmopt_on
	opt asmopt_off
	clrwdt
	opt asmopt_on

	line	13
;dtmftest.c: 13: RC7 = 1;
	bcf	status, 5	;RP0=0, select bank0
	bcf	status, 6	;RP1=0, select bank0
	bsf	(63/8),(63)&7
	line	14
;dtmftest.c: 14: _delay((unsigned long)((5)*(4000000/4000000.0)));
		opt asmopt_off
	nop2	;2 cycle nop
	opt asmopt_on
	opt asmopt_off
	nop2	;2 cycle nop
	opt asmopt_on
	opt asmopt_off
	clrwdt
	opt asmopt_on

	line	15
	
l711:	
	return
	opt stack 0
GLOBAL	__end_of_pulse
	__end_of_pulse:
;; =============== function _pulse ends ============

	signat	_pulse,88
psect	text56,local,class=CODE,delta=2
global __ptext56
__ptext56:
	global	btemp
	btemp set 07Eh

	DABS	1,126,2	;btemp
	global	wtemp0
	wtemp0 set btemp
	end
